                                      1 .module stm8s_itc
                                      2 .optsdcc -mstm8
                                      3 .globl _ITC_SetSoftwarePriority
                                      4 .area DATA
                                      5 .area INITIALIZED
                                      6 .area DABS (ABS)
                                      7 .area HOME
                                      8 .area GSINIT
                                      9 .area GSFINAL
                                     10 .area CONST
                                     11 .area INITIALIZER
                                     12 .area CODE
                                     13 .area HOME
                                     14 .area GSINIT
                                     15 .area GSFINAL
                                     16 .area GSINIT
                                     17 .area HOME
                                     18 .area HOME
                                     19 .area CODE
      00875B                         20 _ITC_SetSoftwarePriority:
      00875B 89               [ 2]   21 pushw	x
      00875C 7B 05            [ 1]   22 ld	a, (0x05, sp)
      00875E 5F               [ 1]   23 clrw	x
      00875F A4 03            [ 1]   24 and	a, #0x03
      008761 97               [ 1]   25 ld	xl, a
      008762 4F               [ 1]   26 clr	a
      008763 58               [ 2]   27 sllw	x
      008764 A6 03            [ 1]   28 ld	a, #0x03
      008766 88               [ 1]   29 push	a
      008767 9F               [ 1]   30 ld	a, xl
      008768 4D               [ 1]   31 tnz	a
      008769 27 05            [ 1]   32 jreq	00132$
      00876B                         33 00131$:
      00876B 08 01            [ 1]   34 sll	(1, sp)
      00876D 4A               [ 1]   35 dec	a
      00876E 26 FB            [ 1]   36 jrne	00131$
      008770                         37 00132$:
      008770 84               [ 1]   38 pop	a
      008771 43               [ 1]   39 cpl	a
      008772 6B 01            [ 1]   40 ld	(0x01, sp), a
      008774 7B 06            [ 1]   41 ld	a, (0x06, sp)
      008776 88               [ 1]   42 push	a
      008777 9F               [ 1]   43 ld	a, xl
      008778 4D               [ 1]   44 tnz	a
      008779 27 05            [ 1]   45 jreq	00134$
      00877B                         46 00133$:
      00877B 08 01            [ 1]   47 sll	(1, sp)
      00877D 4A               [ 1]   48 dec	a
      00877E 26 FB            [ 1]   49 jrne	00133$
      008780                         50 00134$:
      008780 84               [ 1]   51 pop	a
      008781 6B 02            [ 1]   52 ld	(0x02, sp), a
      008783 7B 05            [ 1]   53 ld	a, (0x05, sp)
      008785 A1 18            [ 1]   54 cp	a, #0x18
      008787 23 03            [ 2]   55 jrule	00135$
      008789 CC 88 49         [ 2]   56 jp	00124$
      00878C                         57 00135$:
      00878C 5F               [ 1]   58 clrw	x
      00878D 7B 05            [ 1]   59 ld	a, (0x05, sp)
      00878F 97               [ 1]   60 ld	xl, a
      008790 58               [ 2]   61 sllw	x
      008791 DE 87 95         [ 2]   62 ldw	x, (#00136$, x)
      008794 FC               [ 2]   63 jp	(x)
      008795                         64 00136$:
      008795 87 C7                   65 .dw	#00104$
      008797 87 C7                   66 .dw	#00104$
      008799 87 C7                   67 .dw	#00104$
      00879B 87 C7                   68 .dw	#00104$
      00879D 87 DA                   69 .dw	#00108$
      00879F 87 DA                   70 .dw	#00108$
      0087A1 87 DA                   71 .dw	#00108$
      0087A3 87 DA                   72 .dw	#00108$
      0087A5 88 49                   73 .dw	#00124$
      0087A7 88 49                   74 .dw	#00124$
      0087A9 87 ED                   75 .dw	#00110$
      0087AB 87 ED                   76 .dw	#00110$
      0087AD 88 00                   77 .dw	#00114$
      0087AF 88 00                   78 .dw	#00114$
      0087B1 88 00                   79 .dw	#00114$
      0087B3 88 00                   80 .dw	#00114$
      0087B5 88 13                   81 .dw	#00118$
      0087B7 88 13                   82 .dw	#00118$
      0087B9 88 13                   83 .dw	#00118$
      0087BB 88 13                   84 .dw	#00118$
      0087BD 88 49                   85 .dw	#00124$
      0087BF 88 49                   86 .dw	#00124$
      0087C1 88 26                   87 .dw	#00120$
      0087C3 88 26                   88 .dw	#00120$
      0087C5 88 39                   89 .dw	#00121$
      0087C7                         90 00104$:
      0087C7 C6 7F 70         [ 1]   91 ld	a, 0x7f70
      0087CA 14 01            [ 1]   92 and	a, (0x01, sp)
      0087CC C7 7F 70         [ 1]   93 ld	0x7f70, a
      0087CF C6 7F 70         [ 1]   94 ld	a, 0x7f70
      0087D2 1A 02            [ 1]   95 or	a, (0x02, sp)
      0087D4 C7 7F 70         [ 1]   96 ld	0x7f70, a
      0087D7 CC 88 49         [ 2]   97 jp	00124$
      0087DA                         98 00108$:
      0087DA C6 7F 71         [ 1]   99 ld	a, 0x7f71
      0087DD 14 01            [ 1]  100 and	a, (0x01, sp)
      0087DF C7 7F 71         [ 1]  101 ld	0x7f71, a
      0087E2 C6 7F 71         [ 1]  102 ld	a, 0x7f71
      0087E5 1A 02            [ 1]  103 or	a, (0x02, sp)
      0087E7 C7 7F 71         [ 1]  104 ld	0x7f71, a
      0087EA CC 88 49         [ 2]  105 jp	00124$
      0087ED                        106 00110$:
      0087ED C6 7F 72         [ 1]  107 ld	a, 0x7f72
      0087F0 14 01            [ 1]  108 and	a, (0x01, sp)
      0087F2 C7 7F 72         [ 1]  109 ld	0x7f72, a
      0087F5 C6 7F 72         [ 1]  110 ld	a, 0x7f72
      0087F8 1A 02            [ 1]  111 or	a, (0x02, sp)
      0087FA C7 7F 72         [ 1]  112 ld	0x7f72, a
      0087FD CC 88 49         [ 2]  113 jp	00124$
      008800                        114 00114$:
      008800 C6 7F 73         [ 1]  115 ld	a, 0x7f73
      008803 14 01            [ 1]  116 and	a, (0x01, sp)
      008805 C7 7F 73         [ 1]  117 ld	0x7f73, a
      008808 C6 7F 73         [ 1]  118 ld	a, 0x7f73
      00880B 1A 02            [ 1]  119 or	a, (0x02, sp)
      00880D C7 7F 73         [ 1]  120 ld	0x7f73, a
      008810 CC 88 49         [ 2]  121 jp	00124$
      008813                        122 00118$:
      008813 C6 7F 74         [ 1]  123 ld	a, 0x7f74
      008816 14 01            [ 1]  124 and	a, (0x01, sp)
      008818 C7 7F 74         [ 1]  125 ld	0x7f74, a
      00881B C6 7F 74         [ 1]  126 ld	a, 0x7f74
      00881E 1A 02            [ 1]  127 or	a, (0x02, sp)
      008820 C7 7F 74         [ 1]  128 ld	0x7f74, a
      008823 CC 88 49         [ 2]  129 jp	00124$
      008826                        130 00120$:
      008826 C6 7F 75         [ 1]  131 ld	a, 0x7f75
      008829 14 01            [ 1]  132 and	a, (0x01, sp)
      00882B C7 7F 75         [ 1]  133 ld	0x7f75, a
      00882E C6 7F 75         [ 1]  134 ld	a, 0x7f75
      008831 1A 02            [ 1]  135 or	a, (0x02, sp)
      008833 C7 7F 75         [ 1]  136 ld	0x7f75, a
      008836 CC 88 49         [ 2]  137 jp	00124$
      008839                        138 00121$:
      008839 C6 7F 76         [ 1]  139 ld	a, 0x7f76
      00883C 14 01            [ 1]  140 and	a, (0x01, sp)
      00883E C7 7F 76         [ 1]  141 ld	0x7f76, a
      008841 C6 7F 76         [ 1]  142 ld	a, 0x7f76
      008844 1A 02            [ 1]  143 or	a, (0x02, sp)
      008846 C7 7F 76         [ 1]  144 ld	0x7f76, a
      008849                        145 00124$:
      008849 85               [ 2]  146 popw	x
      00884A 81               [ 4]  147 ret
                                    148 .area CODE
                                    149 .area CONST
                                    150 .area INITIALIZER
                                    151 .area CABS (ABS)
